target datalayout = "e-m:e-p270:32:32-p271:32:32-p272:64:64-i64:64-i128:128-f80:128-n8:16:32:64-S128"
target triple = "x86_64-unknown-linux-gnu"

%"class.Assimp::PlyExporter" = type { %"class.std::__cxx11::basic_ostringstream", %"class.std::__cxx11::basic_string", %"class.std::__cxx11::basic_string" }
%"class.std::__cxx11::basic_ostringstream" = type { %"class.std::basic_ostream.base", %"class.std::__cxx11::basic_stringbuf", %"class.std::basic_ios" }
%"class.std::basic_ostream.base" = type { ptr }
%"class.std::__cxx11::basic_stringbuf" = type { %"class.std::basic_streambuf", i32, %"class.std::__cxx11::basic_string" }
%"class.std::basic_streambuf" = type { ptr, ptr, ptr, ptr, ptr, ptr, ptr, %"class.std::locale" }
%"class.std::locale" = type { ptr }
%"class.std::basic_ios" = type { %"class.std::ios_base", ptr, i8, i8, ptr, ptr, ptr, ptr }
%"class.std::ios_base" = type { ptr, i64, i64, i32, i32, i32, ptr, %"struct.std::ios_base::_Words", [8 x %"struct.std::ios_base::_Words"], i32, ptr, %"class.std::locale" }
%"struct.std::ios_base::_Words" = type { ptr, i64 }
%"class.std::__cxx11::basic_string" = type { %"struct.std::__cxx11::basic_string<char>::_Alloc_hider", i64, %union.anon }
%"struct.std::__cxx11::basic_string<char>::_Alloc_hider" = type { ptr }
%union.anon = type { i64, [8 x i8] }
%struct.aiString = type { i32, [1024 x i8] }
%struct.aiMesh = type { i32, i32, i32, ptr, ptr, ptr, ptr, [8 x ptr], [8 x ptr], [8 x i32], ptr, i32, ptr, i32, %struct.aiString, i32, ptr, i32, %struct.aiAABB, ptr }
%struct.aiAABB = type { %class.aiVector3t, %class.aiVector3t }
%class.aiVector3t = type { float, float, float }
%struct.aiFace = type { i32, ptr }

; Function Attrs: mustprogress uwtable
define linkonce_odr hidden void @_ZN6Assimp30WriteMeshIndicesBinary_GenericIhiEEvPK6aiMeshjRNSt7__cxx1119basic_ostringstreamIcSt11char_traitsIcESaIcEEE(ptr noundef %m, i32 noundef %offset, ptr noundef nonnull align 8 dereferenceable(112) %output) #2 comdat {
entry:
  %m.addr = alloca ptr, align 8
  %offset.addr = alloca i32, align 4
  %output.addr = alloca ptr, align 8
  %i = alloca i32, align 4
  %f = alloca ptr, align 8
  %numIndices = alloca i8, align 1
  %c = alloca i32, align 4
  %index = alloca i32, align 4
  store ptr %m, ptr %m.addr, align 8
  store i32 %offset, ptr %offset.addr, align 4
  store ptr %output, ptr %output.addr, align 8
  store i32 0, ptr %i, align 4
  br label %for.cond

for.cond:                                         ; preds = %for.inc8, %entry
  %0 = load i32, ptr %i, align 4
  %1 = load ptr, ptr %m.addr, align 8
  %mNumFaces = getelementptr inbounds %struct.aiMesh, ptr %1, i32 0, i32 2
  %2 = load i32, ptr %mNumFaces, align 8
  %cmp = icmp ult i32 %0, %2
  br i1 %cmp, label %for.body, label %for.end10

for.body:                                         ; preds = %for.cond
  %3 = load ptr, ptr %m.addr, align 8
  %mFaces = getelementptr inbounds %struct.aiMesh, ptr %3, i32 0, i32 10
  %4 = load ptr, ptr %mFaces, align 8
  %5 = load i32, ptr %i, align 4
  %idxprom = zext i32 %5 to i64
  %arrayidx = getelementptr inbounds %struct.aiFace, ptr %4, i64 %idxprom
  store ptr %arrayidx, ptr %f, align 8
  %6 = load ptr, ptr %f, align 8
  %mNumIndices = getelementptr inbounds %struct.aiFace, ptr %6, i32 0, i32 0
  %7 = load i32, ptr %mNumIndices, align 8
  %conv = trunc i32 %7 to i8
  store i8 %conv, ptr %numIndices, align 1
  %8 = load ptr, ptr %output.addr, align 8
  %call = call noundef nonnull align 8 dereferenceable(8) ptr @_ZNSo5writeEPKcl(ptr noundef nonnull align 8 dereferenceable(8) %8, ptr noundef %numIndices, i64 noundef 1)
  store i32 0, ptr %c, align 4
  br label %for.cond1

for.cond1:                                        ; preds = %for.inc, %for.body
  %9 = load i32, ptr %c, align 4
  %10 = load ptr, ptr %f, align 8
  %mNumIndices2 = getelementptr inbounds %struct.aiFace, ptr %10, i32 0, i32 0
  %11 = load i32, ptr %mNumIndices2, align 8
  %cmp3 = icmp ult i32 %9, %11
  br i1 %cmp3, label %for.body4, label %for.end

for.body4:                                        ; preds = %for.cond1
  %12 = load ptr, ptr %f, align 8
  %mIndices = getelementptr inbounds %struct.aiFace, ptr %12, i32 0, i32 1
  %13 = load ptr, ptr %mIndices, align 8
  %14 = load i32, ptr %c, align 4
  %idxprom5 = zext i32 %14 to i64
  %arrayidx6 = getelementptr inbounds i32, ptr %13, i64 %idxprom5
  %15 = load i32, ptr %arrayidx6, align 4
  %16 = load i32, ptr %offset.addr, align 4
  %add = add i32 %15, %16
  store i32 %add, ptr %index, align 4
  %17 = load ptr, ptr %output.addr, align 8
  %call7 = call noundef nonnull align 8 dereferenceable(8) ptr @_ZNSo5writeEPKcl(ptr noundef nonnull align 8 dereferenceable(8) %17, ptr noundef %index, i64 noundef 4)
  br label %for.inc

for.inc:                                          ; preds = %for.body4
  %18 = load i32, ptr %c, align 4
  %inc = add i32 %18, 1
  store i32 %inc, ptr %c, align 4
  br label %for.cond1, !llvm.loop !21

for.end:                                          ; preds = %for.cond1
  br label %for.inc8

for.inc8:                                         ; preds = %for.end
  %19 = load i32, ptr %i, align 4
  %inc9 = add i32 %19, 1
  store i32 %inc9, ptr %i, align 4
  br label %for.cond, !llvm.loop !22

for.end10:                                        ; preds = %for.cond
  ret void
}

; Function Attrs: mustprogress uwtable
define hidden void @_ZN6Assimp11PlyExporter22WriteMeshIndicesBinaryEPK6aiMeshj(ptr noundef nonnull align 8 dereferenceable(440) %this, ptr noundef %m, i32 noundef %offset) #2 align 2 {
entry:
  %this.addr = alloca ptr, align 8
  %m.addr = alloca ptr, align 8
  %offset.addr = alloca i32, align 4
  store ptr %this, ptr %this.addr, align 8
  store ptr %m, ptr %m.addr, align 8
  store i32 %offset, ptr %offset.addr, align 4
  %this1 = load ptr, ptr %this.addr, align 8
  %0 = load ptr, ptr %m.addr, align 8
  %1 = load i32, ptr %offset.addr, align 4
  %mOutput = getelementptr inbounds %"class.Assimp::PlyExporter", ptr %this1, i32 0, i32 0
  call void @_ZN6Assimp30WriteMeshIndicesBinary_GenericIhiEEvPK6aiMeshjRNSt7__cxx1119basic_ostringstreamIcSt11char_traitsIcESaIcEEE(ptr noundef %0, i32 noundef %1, ptr noundef nonnull align 8 dereferenceable(112) %mOutput)
  ret void
}