; Function Attrs: mustprogress uwtable
define hidden void @_ZN6Assimp11PlyExporter22WriteMeshIndicesBinaryEPK6aiMeshj(ptr noundef nonnull align 8 dereferenceable(440) %this, ptr nocapture noundef readonly %m, i32 noundef %offset) local_unnamed_addr #1 align 2 {
entry:
  %numIndices.i = alloca i8, align 1
  %index.i = alloca i32, align 4
  call void @llvm.lifetime.start.p0(i64 1, ptr nonnull %numIndices.i)
  call void @llvm.lifetime.start.p0(i64 4, ptr nonnull %index.i)
  %mNumFaces.i = getelementptr inbounds i8, ptr %m, i64 8
  %0 = load i32, ptr %mNumFaces.i, align 8
  %cmp11.not.i = icmp eq i32 %0, 0
  br i1 %cmp11.not.i, label %_ZN6Assimp30WriteMeshIndicesBinary_GenericIhiEEvPK6aiMeshjRNSt7__cxx1119basic_ostringstreamIcSt11char_traitsIcESaIcEEE.exit, label %for.body.lr.ph.i

for.body.lr.ph.i:                                 ; preds = %entry
  %mFaces.i = getelementptr inbounds i8, ptr %m, i64 208
  br label %for.body.i

for.body.i:                                       ; preds = %for.inc8.i, %for.body.lr.ph.i
  %indvars.iv14.i = phi i64 [ 0, %for.body.lr.ph.i ], [ %indvars.iv.next15.i, %for.inc8.i ]
  %1 = load ptr, ptr %mFaces.i, align 8
  %arrayidx.i = getelementptr inbounds %struct.aiFace, ptr %1, i64 %indvars.iv14.i
  %2 = load i32, ptr %arrayidx.i, align 8
  %conv.i = trunc i32 %2 to i8
  store i8 %conv.i, ptr %numIndices.i, align 1
  %call.i = call noundef nonnull align 8 dereferenceable(8) ptr @_ZNSo5writeEPKcl(ptr noundef nonnull align 8 dereferenceable(8) %this, ptr noundef nonnull %numIndices.i, i64 noundef 1)
  %3 = load i32, ptr %arrayidx.i, align 8
  %cmp39.not.i = icmp eq i32 %3, 0
  br i1 %cmp39.not.i, label %for.inc8.i, label %for.body4.lr.ph.i

for.body4.lr.ph.i:                                ; preds = %for.body.i
  %mIndices.i = getelementptr inbounds i8, ptr %arrayidx.i, i64 8
  br label %for.body4.i

for.body4.i:                                      ; preds = %for.body4.i, %for.body4.lr.ph.i
  %indvars.iv.i = phi i64 [ 0, %for.body4.lr.ph.i ], [ %indvars.iv.next.i, %for.body4.i ]
  %4 = load ptr, ptr %mIndices.i, align 8
  %arrayidx6.i = getelementptr inbounds i32, ptr %4, i64 %indvars.iv.i
  %5 = load i32, ptr %arrayidx6.i, align 4
  %add.i = add i32 %5, %offset
  store i32 %add.i, ptr %index.i, align 4
  %call7.i = call noundef nonnull align 8 dereferenceable(8) ptr @_ZNSo5writeEPKcl(ptr noundef nonnull align 8 dereferenceable(8) %this, ptr noundef nonnull %index.i, i64 noundef 4)
  %indvars.iv.next.i = add nuw nsw i64 %indvars.iv.i, 1
  %6 = load i32, ptr %arrayidx.i, align 8
  %7 = zext i32 %6 to i64
  %cmp3.i = icmp ult i64 %indvars.iv.next.i, %7
  br i1 %cmp3.i, label %for.body4.i, label %for.inc8.i, !llvm.loop !12

for.inc8.i:                                       ; preds = %for.body4.i, %for.body.i
  %indvars.iv.next15.i = add nuw nsw i64 %indvars.iv14.i, 1
  %8 = load i32, ptr %mNumFaces.i, align 8
  %9 = zext i32 %8 to i64
  %cmp.i = icmp ult i64 %indvars.iv.next15.i, %9
  br i1 %cmp.i, label %for.body.i, label %_ZN6Assimp30WriteMeshIndicesBinary_GenericIhiEEvPK6aiMeshjRNSt7__cxx1119basic_ostringstreamIcSt11char_traitsIcESaIcEEE.exit, !llvm.loop !13

_ZN6Assimp30WriteMeshIndicesBinary_GenericIhiEEvPK6aiMeshjRNSt7__cxx1119basic_ostringstreamIcSt11char_traitsIcESaIcEEE.exit: ; preds = %for.inc8.i, %entry
  call void @llvm.lifetime.end.p0(i64 1, ptr nonnull %numIndices.i)
  call void @llvm.lifetime.end.p0(i64 4, ptr nonnull %index.i)
  ret void
}